; Function Attrs: nounwind uwtable
define dso_local range(i32 -1, 1) i32 @unpackstr_xmalloc_chooser(ptr noundef writeonly captures(none) initializes((0, 8)) %0, ptr noundef captures(none) initializes((0, 4)) %1, ptr noundef captures(none) %2) #0 {
  %4 = load ptr, ptr @slurmdbd_conf, align 8
  %.not = icmp eq ptr %4, null
  br i1 %.not, label %7, label %5

5:                                                ; preds = %3
  %6 = tail call i32 @unpackstr_xmalloc_escaped(ptr noundef %0, ptr noundef %1, ptr noundef %2)
  br label %9

7:                                                ; preds = %3
  %8 = tail call i32 @unpackstr_xmalloc(ptr noundef %0, ptr noundef %1, ptr noundef %2)
  br label %9

9:                                                ; preds = %7, %5
  %.0 = phi i32 [ %6, %5 ], [ %8, %7 ]
  ret i32 %.0
}